target datalayout = "e-m:e-p270:32:32-p271:32:32-p272:64:64-i64:64-i128:128-f80:128-n8:16:32:64-S128"
target triple = "x86_64-pc-linux-gnu"

%struct.forward_data_msg = type { ptr, i32, ptr }

; Function Attrs: nounwind uwtable
define internal void @_pack_forward_data_msg(ptr noundef %0, ptr noundef %1, i16 noundef zeroext %2) #0 {
  %4 = alloca ptr, align 8
  %5 = alloca ptr, align 8
  %6 = alloca i16, align 2
  %7 = alloca i32, align 4
  store ptr %0, ptr %4, align 8
  store ptr %1, ptr %5, align 8
  store i16 %2, ptr %6, align 2
  br label %8

8:                                                ; preds = %3
  call void @llvm.lifetime.start.p0(i64 4, ptr %7) #6
  store i32 0, ptr %7, align 4
  %9 = load ptr, ptr %4, align 8
  %10 = getelementptr inbounds nuw %struct.forward_data_msg, ptr %9, i32 0, i32 0
  %11 = load ptr, ptr %10, align 8
  %12 = icmp ne ptr %11, null
  br i1 %12, label %13, label %20

13:                                               ; preds = %8
  %14 = load ptr, ptr %4, align 8
  %15 = getelementptr inbounds nuw %struct.forward_data_msg, ptr %14, i32 0, i32 0
  %16 = load ptr, ptr %15, align 8
  %17 = call i64 @strlen(ptr noundef %16) #7
  %18 = trunc i64 %17 to i32
  %19 = add i32 %18, 1
  store i32 %19, ptr %7, align 4
  br label %20

20:                                               ; preds = %13, %8
  %21 = load ptr, ptr %4, align 8
  %22 = getelementptr inbounds nuw %struct.forward_data_msg, ptr %21, i32 0, i32 0
  %23 = load ptr, ptr %22, align 8
  %24 = load i32, ptr %7, align 4
  %25 = load ptr, ptr %5, align 8
  call void @packmem(ptr noundef %23, i32 noundef %24, ptr noundef %25)
  call void @llvm.lifetime.end.p0(i64 4, ptr %7) #6
  br label %26

26:                                               ; preds = %20
  %27 = load ptr, ptr %4, align 8
  %28 = getelementptr inbounds nuw %struct.forward_data_msg, ptr %27, i32 0, i32 1
  %29 = load i32, ptr %28, align 8
  %30 = load ptr, ptr %5, align 8
  call void @pack32(i32 noundef %29, ptr noundef %30)
  %31 = load ptr, ptr %4, align 8
  %32 = getelementptr inbounds nuw %struct.forward_data_msg, ptr %31, i32 0, i32 2
  %33 = load ptr, ptr %32, align 8
  %34 = load ptr, ptr %4, align 8
  %35 = getelementptr inbounds nuw %struct.forward_data_msg, ptr %34, i32 0, i32 1
  %36 = load i32, ptr %35, align 8
  %37 = load ptr, ptr %5, align 8
  call void @packmem(ptr noundef %33, i32 noundef %36, ptr noundef %37)
  ret void
}