; Function Attrs: nounwind uwtable
define internal fastcc void @_pack_forward_data_msg(ptr noundef readonly captures(none) %0, ptr noundef %1) unnamed_addr #0 {
  %3 = load ptr, ptr %0, align 8
  %.not = icmp eq ptr %3, null
  br i1 %.not, label %8, label %4

4:                                                ; preds = %2
  %5 = tail call i64 @strlen(ptr noundef nonnull dereferenceable(1) %3) #8
  %6 = trunc i64 %5 to i32
  %7 = add i32 %6, 1
  br label %8

8:                                                ; preds = %4, %2
  %.0 = phi i32 [ %7, %4 ], [ 0, %2 ]
  tail call void @packmem(ptr noundef %3, i32 noundef %.0, ptr noundef %1) #7
  %9 = getelementptr inbounds nuw i8, ptr %0, i64 8
  %10 = load i32, ptr %9, align 8
  tail call void @pack32(i32 noundef %10, ptr noundef %1) #7
  %11 = getelementptr inbounds nuw i8, ptr %0, i64 16
  %12 = load ptr, ptr %11, align 8
  %13 = load i32, ptr %9, align 8
  tail call void @packmem(ptr noundef %12, i32 noundef %13, ptr noundef %1) #7
  ret void
}